target datalayout = "e-m:e-p270:32:32-p271:32:32-p272:64:64-i64:64-i128:128-f80:128-n8:16:32:64-S128"
target triple = "x86_64-pc-linux-gnu"

; Function Attrs: mustprogress nounwind uwtable
define noundef i32 @_Z6FactorddPA2_dd(double noundef %0, double noundef %1, ptr noundef %2, double noundef %3) #0 {
  %5 = alloca i32, align 4
  %6 = alloca double, align 8
  %7 = alloca double, align 8
  %8 = alloca ptr, align 8
  %9 = alloca double, align 8
  store double %0, ptr %6, align 8
  store double %1, ptr %7, align 8
  store ptr %2, ptr %8, align 8
  store double %3, ptr %9, align 8
  %10 = load double, ptr %6, align 8
  %11 = call double @llvm.fabs.f64(double %10)
  %12 = load double, ptr %9, align 8
  %13 = fcmp ole double %11, %12
  br i1 %13, label %14, label %15

14:                                               ; preds = %4
  store i32 0, ptr %5, align 4
  br label %26

15:                                               ; preds = %4
  %16 = load double, ptr %7, align 8
  %17 = fneg double %16
  %18 = load double, ptr %6, align 8
  %19 = fdiv double %17, %18
  %20 = load ptr, ptr %8, align 8
  %21 = getelementptr inbounds [2 x double], ptr %20, i64 0
  %22 = getelementptr inbounds [2 x double], ptr %21, i64 0, i64 0
  store double %19, ptr %22, align 8
  %23 = load ptr, ptr %8, align 8
  %24 = getelementptr inbounds [2 x double], ptr %23, i64 0
  %25 = getelementptr inbounds [2 x double], ptr %24, i64 0, i64 1
  store double 0.000000e+00, ptr %25, align 8
  store i32 1, ptr %5, align 4
  br label %26

26:                                               ; preds = %15, %14
  %27 = load i32, ptr %5, align 4
  ret i32 %27
}

; Function Attrs: mustprogress nounwind uwtable
define noundef i32 @_Z6FactordddPA2_dd(double noundef %0, double noundef %1, double noundef %2, ptr noundef %3, double noundef %4) #0 {
  %6 = alloca i32, align 4
  %7 = alloca double, align 8
  %8 = alloca double, align 8
  %9 = alloca double, align 8
  %10 = alloca ptr, align 8
  %11 = alloca double, align 8
  %12 = alloca double, align 8
  store double %0, ptr %7, align 8
  store double %1, ptr %8, align 8
  store double %2, ptr %9, align 8
  store ptr %3, ptr %10, align 8
  store double %4, ptr %11, align 8
  %13 = load double, ptr %7, align 8
  %14 = call double @llvm.fabs.f64(double %13)
  %15 = load double, ptr %11, align 8
  %16 = fcmp ole double %14, %15
  br i1 %16, label %17, label %23

17:                                               ; preds = %5
  %18 = load double, ptr %8, align 8
  %19 = load double, ptr %9, align 8
  %20 = load ptr, ptr %10, align 8
  %21 = load double, ptr %11, align 8
  %22 = call noundef i32 @_Z6FactorddPA2_dd(double noundef %18, double noundef %19, ptr noundef %20, double noundef %21)
  store i32 %22, ptr %6, align 4
  br label %89

23:                                               ; preds = %5
  %24 = load double, ptr %8, align 8
  %25 = load double, ptr %8, align 8
  %26 = load double, ptr %9, align 8
  %27 = fmul double 4.000000e+00, %26
  %28 = load double, ptr %7, align 8
  %29 = fmul double %27, %28
  %30 = fneg double %29
  %31 = call double @llvm.fmuladd.f64(double %24, double %25, double %30)
  store double %31, ptr %12, align 8
  %32 = load double, ptr %7, align 8
  %33 = fmul double 2.000000e+00, %32
  %34 = load double, ptr %8, align 8
  %35 = fdiv double %34, %33
  store double %35, ptr %8, align 8
  %36 = load double, ptr %12, align 8
  %37 = fcmp olt double %36, 0.000000e+00
  br i1 %37, label %38, label %62

38:                                               ; preds = %23
  %39 = load double, ptr %12, align 8
  %40 = fneg double %39
  %41 = call double @sqrt(double noundef %40) #6
  %42 = load double, ptr %7, align 8
  %43 = fmul double 2.000000e+00, %42
  %44 = fdiv double %41, %43
  store double %44, ptr %12, align 8
  %45 = load double, ptr %8, align 8
  %46 = fneg double %45
  %47 = load ptr, ptr %10, align 8
  %48 = getelementptr inbounds [2 x double], ptr %47, i64 1
  %49 = getelementptr inbounds [2 x double], ptr %48, i64 0, i64 0
  store double %46, ptr %49, align 8
  %50 = load ptr, ptr %10, align 8
  %51 = getelementptr inbounds [2 x double], ptr %50, i64 0
  %52 = getelementptr inbounds [2 x double], ptr %51, i64 0, i64 0
  store double %46, ptr %52, align 8
  %53 = load double, ptr %12, align 8
  %54 = fneg double %53
  %55 = load ptr, ptr %10, align 8
  %56 = getelementptr inbounds [2 x double], ptr %55, i64 0
  %57 = getelementptr inbounds [2 x double], ptr %56, i64 0, i64 1
  store double %54, ptr %57, align 8
  %58 = load double, ptr %12, align 8
  %59 = load ptr, ptr %10, align 8
  %60 = getelementptr inbounds [2 x double], ptr %59, i64 1
  %61 = getelementptr inbounds [2 x double], ptr %60, i64 0, i64 1
  store double %58, ptr %61, align 8
  br label %88

62:                                               ; preds = %23
  %63 = load double, ptr %12, align 8
  %64 = call double @sqrt(double noundef %63) #6
  %65 = load double, ptr %7, align 8
  %66 = fmul double 2.000000e+00, %65
  %67 = fdiv double %64, %66
  store double %67, ptr %12, align 8
  %68 = load ptr, ptr %10, align 8
  %69 = getelementptr inbounds [2 x double], ptr %68, i64 1
  %70 = getelementptr inbounds [2 x double], ptr %69, i64 0, i64 1
  store double 0.000000e+00, ptr %70, align 8
  %71 = load ptr, ptr %10, align 8
  %72 = getelementptr inbounds [2 x double], ptr %71, i64 0
  %73 = getelementptr inbounds [2 x double], ptr %72, i64 0, i64 1
  store double 0.000000e+00, ptr %73, align 8
  %74 = load double, ptr %8, align 8
  %75 = fneg double %74
  %76 = load double, ptr %12, align 8
  %77 = fsub double %75, %76
  %78 = load ptr, ptr %10, align 8
  %79 = getelementptr inbounds [2 x double], ptr %78, i64 0
  %80 = getelementptr inbounds [2 x double], ptr %79, i64 0, i64 0
  store double %77, ptr %80, align 8
  %81 = load double, ptr %8, align 8
  %82 = fneg double %81
  %83 = load double, ptr %12, align 8
  %84 = fadd double %82, %83
  %85 = load ptr, ptr %10, align 8
  %86 = getelementptr inbounds [2 x double], ptr %85, i64 1
  %87 = getelementptr inbounds [2 x double], ptr %86, i64 0, i64 0
  store double %84, ptr %87, align 8
  br label %88

88:                                               ; preds = %62, %38
  store i32 2, ptr %6, align 4
  br label %89

89:                                               ; preds = %88, %17
  %90 = load i32, ptr %6, align 4
  ret i32 %90
}