; Function Attrs: mustprogress nofree nounwind willreturn memory(write) uwtable
define noundef range(i32 0, 3) i32 @_Z6FactordddPA2_dd(double noundef %0, double noundef %1, double noundef %2, ptr noundef writeonly captures(none) %3, double noundef %4) local_unnamed_addr #2 {
  %6 = tail call double @llvm.fabs.f64(double %0)
  %7 = fcmp ugt double %6, %4
  br i1 %7, label %15, label %8

8:                                                ; preds = %5
  %9 = tail call double @llvm.fabs.f64(double %1)
  %10 = fcmp ugt double %9, %4
  br i1 %10, label %11, label %_Z6FactorddPA2_dd.exit

11:                                               ; preds = %8
  %12 = fneg double %2
  %13 = fdiv double %12, %1
  store double %13, ptr %3, align 8
  %14 = getelementptr inbounds nuw i8, ptr %3, i64 8
  store double 0.000000e+00, ptr %14, align 8
  br label %_Z6FactorddPA2_dd.exit

15:                                               ; preds = %5
  %16 = fmul double %2, 4.000000e+00
  %17 = fneg double %0
  %18 = fmul double %16, %17
  %19 = tail call double @llvm.fmuladd.f64(double %1, double %1, double %18)
  %20 = fmul double %0, 2.000000e+00
  %21 = fdiv double %1, %20
  %22 = fcmp olt double %19, 0.000000e+00
  br i1 %22, label %23, label %32

23:                                               ; preds = %15
  %24 = fneg double %19
  %25 = tail call double @sqrt(double noundef %24) #12
  %26 = fdiv double %25, %20
  %27 = fneg double %21
  %28 = getelementptr inbounds nuw i8, ptr %3, i64 16
  store double %27, ptr %28, align 8
  store double %27, ptr %3, align 8
  %29 = fneg double %26
  %30 = getelementptr inbounds nuw i8, ptr %3, i64 8
  store double %29, ptr %30, align 8
  %31 = getelementptr inbounds nuw i8, ptr %3, i64 24
  store double %26, ptr %31, align 8
  br label %_Z6FactorddPA2_dd.exit

32:                                               ; preds = %15
  %33 = tail call double @sqrt(double noundef %19) #12
  %34 = fdiv double %33, %20
  %35 = getelementptr inbounds nuw i8, ptr %3, i64 16
  %36 = getelementptr inbounds nuw i8, ptr %3, i64 24
  store double 0.000000e+00, ptr %36, align 8
  %37 = getelementptr inbounds nuw i8, ptr %3, i64 8
  store double 0.000000e+00, ptr %37, align 8
  %38 = fneg double %21
  %39 = fsub double %38, %34
  store double %39, ptr %3, align 8
  %40 = fsub double %34, %21
  store double %40, ptr %35, align 8
  br label %_Z6FactorddPA2_dd.exit

_Z6FactorddPA2_dd.exit:                           ; preds = %11, %8, %23, %32
  %.0 = phi i32 [ 2, %32 ], [ 2, %23 ], [ 1, %11 ], [ 0, %8 ]
  ret i32 %.0
}